; Function Attrs: mustprogress nounwind uwtable
define void @_ZN13ATapDataModelD2Ev(ptr noundef nonnull align 8 dereferenceable(120) %0) unnamed_addr #3 align 2 personality ptr @__gxx_personality_v0 {
  store ptr getelementptr inbounds ({ [52 x ptr] }, ptr @_ZTV13ATapDataModel, i64 0, i32 0, i64 2), ptr %0, align 8
  %2 = getelementptr inbounds i8, ptr %0, i64 59
  %3 = load i8, ptr %2, align 1
  %4 = and i8 %3, 1
  %.not = icmp eq i8 %4, 0
  br i1 %.not, label %5, label %7

5:                                                ; preds = %1
  %6 = getelementptr inbounds i8, ptr %0, i64 88
  invoke void @remove_tap_listener(ptr noundef nonnull %6)
          to label %7 unwind label %20

7:                                                ; preds = %5, %1
  %8 = getelementptr inbounds i8, ptr %0, i64 16
  %9 = load i32, ptr %8, align 8
  switch i32 %9, label %14 [
    i32 0, label %10
    i32 1, label %12
  ]

10:                                               ; preds = %7
  %11 = getelementptr inbounds i8, ptr %0, i64 88
  invoke void @reset_endpoint_table_data(ptr noundef nonnull %11)
          to label %14 unwind label %20

12:                                               ; preds = %7
  %13 = getelementptr inbounds i8, ptr %0, i64 88
  invoke void @reset_conversation_table_data(ptr noundef nonnull %13)
          to label %14 unwind label %20

14:                                               ; preds = %7, %12, %10
  %15 = getelementptr inbounds i8, ptr %0, i64 32
  %16 = load ptr, ptr %15, align 8
  %.not.i.i.i = icmp eq ptr %16, null
  br i1 %.not.i.i.i, label %_ZN7QStringD2Ev.exit, label %_ZN17QArrayDataPointerIDsE5derefEv.exit.i.i

_ZN17QArrayDataPointerIDsE5derefEv.exit.i.i:      ; preds = %14
  %17 = atomicrmw sub ptr %16, i32 1 seq_cst, align 4
  %.not.i.i = icmp eq i32 %17, 1
  br i1 %.not.i.i, label %18, label %_ZN7QStringD2Ev.exit

18:                                               ; preds = %_ZN17QArrayDataPointerIDsE5derefEv.exit.i.i
  %19 = load ptr, ptr %15, align 8
  tail call void @_ZN10QArrayData10deallocateEPS_xx(ptr noundef %19, i64 noundef 2, i64 noundef 8) #23
  br label %_ZN7QStringD2Ev.exit

_ZN7QStringD2Ev.exit:                             ; preds = %14, %_ZN17QArrayDataPointerIDsE5derefEv.exit.i.i, %18
  tail call void @_ZN18QAbstractListModelD2Ev(ptr noundef nonnull align 8 dereferenceable(16) %0) #23
  ret void

20:                                               ; preds = %12, %10, %5
  %21 = landingpad { ptr, i32 }
          catch ptr null
  %22 = extractvalue { ptr, i32 } %21, 0
  tail call void @__clang_call_terminate(ptr %22) #24
  unreachable
}